(dp0
S'name'
p1
S'bookstein'
p2
sS'children'
p3
(lp4
(dp5
S'score'
p6
F0.6621288434149878
sg1
S'nytimes'
p7
sS'size'
p8
I14160089
sa(dp9
g6
F0.6024210739190844
sg1
S'DalaiLama'
p10
sg8
I9834809
sa(dp11
g6
F0.7532961655655628
sg1
S'BBCWorld'
p12
sg8
I8049266
sa(dp13
g6
F0.7170098613172879
sg1
S'nprnews'
p14
sg8
I3061375
sa(dp15
g6
F0.7411111088037284
sg1
S'maddow'
p16
sg8
I3044201
sa(dp17
g6
F0.668490765740428
sg1
S'TheDailyShow'
p18
sg8
I2944827
sa(dp19
g6
F0.6106084371672981
sg1
S'wikileaks'
p20
sg8
I2423037
sa(dp21
g6
F0.7844805290743996
sg1
S'NickKristof'
p22
sg8
I1525849
sa(dp23
g6
F0.9214918901147827
sg1
S'YourAnonNews'
p24
sg8
I1326447
sa(dp25
g6
F0.3957033176556604
sg1
S'Medium'
p26
sg8
I1002287
sa(dp27
g6
F0.8745964630221176
sg1
S'MotherJones'
p28
sg8
I455471
sa(dp29
g6
F0.9478069469237381
sg1
S'HuffPostPol'
p30
sg8
I435314
sa(dp31
g6
F0.4862231158061716
sg1
S'kanter'
p32
sg8
I404467
sa(dp33
g6
F0.8444930591757265
sg1
S'democracynow'
p34
sg8
I347059
sa(dp35
g6
F0.9260415189549398
sg1
S'ajam'
p36
sg8
I235139
sa(dp37
g6
F0.9462528483917902
sg1
S'ACLU'
p38
sg8
I215827
sa(dp39
g6
F0.9063116375558954
sg1
S'RBReich'
p40
sg8
I214252
sa(dp41
g6
F0.8708490825538281
sg1
S'OccupyWallSt'
p42
sg8
I205603
sa(dp43
g6
F0.43175795370399034
sg1
S'99u'
p44
sg8
I189275
sa(dp45
g6
F0.7244459940118697
sg1
S'pewresearch'
p46
sg8
I181212
sa(dp47
g6
F0.6005260246749018
sg1
S'iraglass'
p48
sg8
I115326
sa(dp49
g6
F0.8172435268595505
sg1
S'UpshotNYT'
p50
sg8
I99405
sa(dp51
g6
F0.8154697883980356
sg1
S'AlterNet'
p52
sg8
I85902
sa(dp53
g6
F0.2793861118514671
sg1
S'GA'
p54
sg8
I72873
sa(dp55
g6
F0.6255953154263557
sg1
S'Revkin'
p56
sg8
I63501
sa(dp57
g6
F0.3344072389905702
sg1
S'GirlsWhoCode'
p58
sg8
I61199
sa(dp59
g6
F0.31305912636044037
sg1
S'TheMoth'
p60
sg8
I56476
sa(dp61
g6
F0.9687524863997323
sg1
S'GlobalRevLive'
p62
sg8
I46335
sa(dp63
g6
F0.5585787738587116
sg1
S'earthisland'
p64
sg8
I43248
sa(dp65
g6
F0.5753698699586668
sg1
S'KQED'
p66
sg8
I42924
sa(dp67
g6
F0.5769960776462038
sg1
S'tomtomorrow'
p68
sg8
I42916
sa(dp69
g6
F0.8971033977000994
sg1
S'OccupyOakland'
p70
sg8
I41415
sa(dp71
g6
F0.9102259061950695
sg1
S'SaveManning'
p72
sg8
I39019
sa(dp73
g6
F0.27995737240395124
sg1
S'Daily_Good'
p74
sg8
I36056
sa(dp75
g6
F0.3492342885188048
sg1
S'FoodCorps'
p76
sg8
I33250
sa(dp77
g6
F0.8744117577919912
sg1
S'FactTank'
p78
sg8
I27073
sa(dp79
g6
F0.3416501953318024
sg1
S'girldevelopit'
p80
sg8
I19914
sa(dp81
g6
F0.7514660970444359
sg1
S'ProfessorCrunk'
p82
sg8
I18090
sa(dp83
g6
F0.5843995473438215
sg1
S'quinnnorton'
p84
sg8
I17763
sa(dp85
g6
F0.866547681131552
sg1
S'neworganizing'
p86
sg8
I17588
sa(dp87
g6
F0.49393225605868346
sg1
S'MattBors'
p88
sg8
I16939
sa(dp89
g6
F0.6116565283368856
sg1
S'aaronsw'
p90
sg8
I14906
sa(dp91
g6
F0.7549212121248698
sg1
S'KuraFire'
p92
sg8
I13239
sa(dp93
g6
F0.7790318818514511
sg1
S'susie_c'
p94
sg8
I12601
sa(dp95
g6
F0.4780180119515844
sg1
S'realfoodnow'
p96
sg8
I12562
sa(dp97
g6
F0.5764062616942909
sg1
S'hypatiadotca'
p98
sg8
I12090
sa(dp99
g6
F0.6052069259993499
sg1
S'dnbornstein'
p100
sg8
I10058
sa(dp101
g6
F0.24306846602456034
sg1
S'PopUpMag'
p102
sg8
I8707
sa(dp103
g6
F0.6653150003042494
sg1
S'sarahjeong'
p104
sg8
I8388
sa(dp105
g6
F0.2934325219344482
sg1
S'geekfeminism'
p106
sg8
I7826
sas.