(dp0
S'name'
p1
S'glennbeck'
p2
sS'children'
p3
(lp4
(dp5
S'score'
p6
F0.493448956026534
sg1
S'TheOnion'
p7
sS'size'
p8
I6585879
sa(dp9
g6
F0.9809572821844579
sg1
S'FoxNews'
p10
sg8
I4590472
sa(dp11
g6
F0.28549763354384383
sg1
S'ochocinco'
p12
sg8
I3601570
sa(dp13
g6
F0.5150841894172629
sg1
S'pennjillette'
p14
sg8
I2008162
sa(dp15
g6
F0.827344828248646
sg1
S'seanhannity'
p16
sg8
I1055947
sa(dp17
g6
F0.3055537571154455
sg1
S'DeionSanders'
p18
sg8
I838414
sa(dp19
g6
F0.9212297085404476
sg1
S'michellemalkin'
p20
sg8
I771013
sa(dp21
g6
F0.8637971507594487
sg1
S'AnnCoulter'
p22
sg8
I563420
sa(dp23
g6
F0.7379870581219311
sg1
S'DennisDMZ'
p24
sg8
I534518
sa(dp25
g6
F0.8064094598337904
sg1
S'SenRandPaul'
p26
sg8
I509297
sa(dp27
g6
F0.8105451027995864
sg1
S'rushlimbaugh'
p28
sg8
I433336
sa(dp29
g6
F0.7528016271692778
sg1
S'marklevinshow'
p30
sg8
I391273
sa(dp31
g6
F0.8905619098773137
sg1
S'theblaze'
p32
sg8
I390049
sa(dp33
g6
F0.6258846693065201
sg1
S'jaketapper'
p34
sg8
I369239
sa(dp35
g6
F0.7204994666551838
sg1
S'secupp'
p36
sg8
I287415
sa(dp37
g6
F0.8347831813394642
sg1
S'Judgenap'
p38
sg8
I272940
sa(dp39
g6
F0.8868967104433063
sg1
S'DLoesch'
p40
sg8
I247098
sa(dp41
g6
F0.7217075304352261
sg1
S'pmarca'
p42
sg8
I221673
sa(dp43
g6
F0.9649940638159189
sg1
S'JimDeMint'
p44
sg8
I214433
sa(dp45
g6
F0.3794776448342178
sg1
S'operationbless'
p46
sg8
I212204
sa(dp47
g6
F0.7712292210246775
sg1
S'FreedomWorks'
p48
sg8
I211116
sa(dp49
g6
F0.3053369735433703
sg1
S'KathieLGifford'
p50
sg8
I181752
sa(dp51
g6
F0.6063294886339908
sg1
S'simonsinek'
p52
sg8
I154249
sa(dp53
g6
F0.6877379033127081
sg1
S'JonahNRO'
p54
sg8
I128005
sa(dp55
g6
F0.5428363546885125
sg1
S'EWErickson'
p56
sg8
I122598
sa(dp57
g6
F0.320966411172324
sg1
S'BillyHallowell'
p58
sg8
I100807
sa(dp59
g6
F0.8350398786748566
sg1
S'peterthiel'
p60
sg8
I75076
sa(dp61
g6
F0.811851408373949
sg1
S'SharylAttkisson'
p62
sg8
I72370
sa(dp63
g6
F0.646021445248139
sg1
S'hughhewitt'
p64
sg8
I70510
sa(dp65
g6
F0.7889641619512894
sg1
S'tvnewser'
p66
sg8
I65665
sa(dp67
g6
F0.9134853571004375
sg1
S'BradThor'
p68
sg8
I63477
sa(dp69
g6
F0.7743276912325638
sg1
S'WorldOfStu'
p70
sg8
I59902
sa(dp71
g6
F0.654231408804462
sg1
S'GBTV'
p72
sg8
I53652
sa(dp73
g6
F0.5461164734421695
sg1
S'BuckSexton'
p74
sg8
I49168
sa(dp75
g6
F0.36478515955931407
sg1
S'PatandStu'
p76
sg8
I39667
sa(dp77
g6
F0.541250413613748
sg1
S'wilkowmajority'
p78
sg8
I39612
sa(dp79
g6
F0.9154644788876654
sg1
S'RealNewsBlazeTV'
p80
sg8
I31818
sa(dp81
g6
F0.2965528168276202
sg1
S'TheBlazeRadio'
p82
sg8
I30141
sa(dp83
g6
F0.8985022766793869
sg1
S'campusreform'
p84
sg8
I26945
sa(dp85
g6
F0.6405082200906549
sg1
S'TheBlazeFaith'
p86
sg8
I24051
sa(dp87
g6
F0.707108197868539
sg1
S'DavidBartonWB'
p88
sg8
I22837
sa(dp89
g6
F0.8208517841892178
sg1
S'Change_for_Iran'
p90
sg8
I22364
sa(dp91
g6
F0.6015939858034304
sg1
S'willcain'
p92
sg8
I22246
sa(dp93
g6
F0.711211551159094
sg1
S'Jay_Severin'
p94
sg8
I20826
sa(dp95
g6
F0.6754284800539225
sg1
S'DocThompsonShow'
p96
sg8
I19984
sa(dp97
g6
F0.33383314137342424
sg1
S'Mercury1Charity'
p98
sg8
I18614
sa(dp99
g6
F0.5832766602960721
sg1
S'HobbyLobbyCase'
p100
sg8
I17221
sa(dp101
g6
F0.898845547845276
sg1
S'RealLaurieDhue'
p102
sg8
I16425
sa(dp103
g6
F0.8782284766267487
sg1
S'SteveKrak'
p104
sg8
I14686
sa(dp105
g6
F0.7212023046106755
sg1
S'JeffyMRA'
p106
sg8
I14344
sas.