(dp0
S'name'
p1
S'ladygaga'
p2
sS'children'
p3
(lp4
(dp5
S'score'
p6
F0.3547027182525135
sg1
S'katyperry'
p7
sS'size'
p8
I60768976
sa(dp9
g6
F0.7587056535986225
sg1
S'BarackObama'
p10
sg8
I50506981
sa(dp11
g6
F0.28375059983028433
sg1
S'YouTube'
p12
sg8
I46801956
sa(dp13
g6
F0.13000171349620165
sg1
S'britneyspears'
p14
sg8
I39707252
sa(dp15
g6
F0.25953023772882433
sg1
S'TheEllenShow'
p16
sg8
I35326898
sa(dp17
g6
F0.16016144301708746
sg1
S'selenagomez'
p18
sg8
I24870949
sa(dp19
g6
F0.17687825912418592
sg1
S'onedirection'
p20
sg8
I21504665
sa(dp21
g6
F0.1620363382779864
sg1
S'OfficialAdele'
p22
sg8
I21302182
sa(dp23
g6
F0.38486165255658933
sg1
S'Real_Liam_Payne'
p24
sg8
I18599034
sa(dp25
g6
F0.205003698177357
sg1
S'xtina'
p26
sg8
I13509667
sa(dp27
g6
F0.10233260985104779
sg1
S'ParisHilton'
p28
sg8
I13005546
sa(dp29
g6
F0.2806620153749058
sg1
S'RyanSeacrest'
p30
sg8
I12962482
sa(dp31
g6
F0.30244290267826834
sg1
S'iamwill'
p32
sg8
I12597369
sa(dp33
g6
F0.16885086259632545
sg1
S'tyrabanks'
p34
sg8
I11833483
sa(dp35
g6
F0.20090595060942612
sg1
S'MTV'
p36
sg8
I11661204
sa(dp37
g6
F0.8435341960114929
sg1
S'LeoDiCaprio'
p38
sg8
I11514578
sa(dp39
g6
F0.3273545438882518
sg1
S'TwitPic'
p40
sg8
I8792867
sa(dp41
g6
F0.16592759993012693
sg1
S'lindsaylohan'
p42
sg8
I8636935
sa(dp43
g6
F0.27994372328455325
sg1
S'eonline'
p44
sg8
I7041818
sa(dp45
g6
F0.7392520073776978
sg1
S'Starbucks'
p46
sg8
I6935790
sa(dp47
g6
F0.2827166905890308
sg1
S'iTunesMusic'
p48
sg8
I6440633
sa(dp49
g6
F0.512266769999232
sg1
S'106andpark'
p50
sg8
I5708542
sa(dp51
g6
F0.20930831604272587
sg1
S'Tip'
p52
sg8
I5555052
sa(dp53
g6
F0.3170270407371849
sg1
S'TheXFactor'
p54
sg8
I5410779
sa(dp55
g6
F0.2709828433977127
sg1
S'voguemagazine'
p56
sg8
I4844006
sa(dp57
g6
F0.25204867255098795
sg1
S'jimmykimmel'
p58
sg8
I4564962
sa(dp59
g6
F0.4368204075690628
sg1
S'AlanCarr'
p60
sg8
I4309957
sa(dp61
g6
F0.258507203681747
sg1
S'kendricklamar'
p62
sg8
I4260002
sa(dp63
g6
F0.4390874809013865
sg1
S'noaheverett'
p64
sg8
I4230244
sa(dp65
g6
F0.4048540247127489
sg1
S'LouisVuitton'
p66
sg8
I3958621
sa(dp67
g6
F0.4123733175100269
sg1
S'FactsOfSchool'
p68
sg8
I3942280
sa(dp69
g6
F0.269832246699181
sg1
S'KellyOsbourne'
p70
sg8
I3873388
sa(dp71
g6
F0.561028351925893
sg1
S'amandabynes'
p72
sg8
I3717627
sa(dp73
g6
F0.24161954483284917
sg1
S'KeshaRose'
p74
sg8
I3648752
sa(dp75
g6
F0.30669306896538917
sg1
S'tyleroakley'
p76
sg8
I3395460
sa(dp77
g6
F0.22569997997377592
sg1
S'Slash'
p78
sg8
I3110809
sa(dp79
g6
F0.2640821694043177
sg1
S'manuginobili'
p80
sg8
I2724351
sa(dp81
g6
F0.4052068225117976
sg1
S'lordemusic'
p82
sg8
I2624554
sa(dp83
g6
F0.15140544278989854
sg1
S'wwd'
p84
sg8
I2592030
sa(dp85
g6
F0.33436546762567804
sg1
S'greysonchance'
p86
sg8
I2556696
sa(dp87
g6
F0.2501239870137932
sg1
S'Metallica'
p88
sg8
I2495683
sa(dp89
g6
F0.3342955455093117
sg1
S'GMA'
p90
sg8
I2487413
sa(dp91
g6
F0.5697191609094797
sg1
S'cher'
p92
sg8
I2375412
sa(dp93
g6
F0.28413206537528995
sg1
S'NRJhitmusiconly'
p94
sg8
I2368609
sa(dp95
g6
F0.2529663994931427
sg1
S'adamlambert'
p96
sg8
I2350151
sa(dp97
g6
F0.027489780961743825
sg1
S'YSL'
p98
sg8
I2343108
sa(dp99
g6
F0.23201777459520595
sg1
S'billboard'
p100
sg8
I2140189
sa(dp101
g6
F0.16618408741016977
sg1
S'BBCR1'
p102
sg8
I2024386
sa(dp103
g6
F0.378451373866285
sg1
S'notch'
p104
sg8
I1924544
sa(dp105
g6
F0.12917281209457207
sg1
S'Versace'
p106
sg8
I1852398
sas.