(dp0
S'name'
p1
S'maddow'
p2
sS'children'
p3
(lp4
(dp5
S'score'
p6
F0.7587056535986225
sg1
S'BarackObama'
p7
sS'size'
p8
I50506923
sa(dp9
g6
F0.34984109656174517
sg1
S'ladygaga'
p10
sg8
I42937550
sa(dp11
g6
F0.729327047713803
sg1
S'BillGates'
p12
sg8
I18663406
sa(dp13
g6
F0.3000318697852216
sg1
S'jimmyfallon'
p14
sg8
I17805993
sa(dp15
g6
F0.16482152289585864
sg1
S'KingJames'
p16
sg8
I16609855
sa(dp17
g6
F0.805547658340833
sg1
S'nytimes'
p18
sg8
I14170779
sa(dp19
g6
F0.23007870906993477
sg1
S'ActuallyNPH'
p20
sg8
I11687151
sa(dp21
g6
F0.3081891469423933
sg1
S'SHAQ'
p22
sg8
I9070525
sa(dp23
g6
F0.3728191205803314
sg1
S'NASA'
p24
sg8
I8096044
sa(dp25
g6
F0.731495062712785
sg1
S'BBCWorld'
p26
sg8
I8057043
sa(dp27
g6
F0.4410152225965082
sg1
S'stephenfry'
p28
sg8
I8047759
sa(dp29
g6
F0.3132623926663443
sg1
S'TheRock'
p30
sg8
I7893701
sa(dp31
g6
F0.4213552132216181
sg1
S'StephenAtHome'
p32
sg8
I7181019
sa(dp33
g6
F0.9944321603041233
sg1
S'BreakingNews'
p34
sg8
I7093783
sa(dp35
g6
F0.7152161211917873
sg1
S'TheEconomist'
p36
sg8
I6614523
sa(dp37
g6
F0.5734308529688705
sg1
S'johnlegend'
p38
sg8
I6103057
sa(dp39
g6
F0.45831022019314094
sg1
S'kobebryant'
p40
sg8
I5887437
sa(dp41
g6
F0.33852427333365315
sg1
S'SarahKSilverman'
p42
sg8
I5754800
sa(dp43
g6
F0.9098067421235037
sg1
S'Reuters'
p44
sg8
I5542873
sa(dp45
g6
F0.6540283809791257
sg1
S'WhiteHouse'
p46
sg8
I5508234
sa(dp47
g6
F0.38751852547907206
sg1
S'SteveMartinToGo'
p48
sg8
I5427354
sa(dp49
g6
F0.7773396135466004
sg1
S'andersoncooper'
p50
sg8
I5394920
sa(dp51
g6
F0.5736938837668353
sg1
S'HuffingtonPost'
p52
sg8
I4906624
sa(dp53
g6
F0.5315130974676451
sg1
S'Pontifex'
p54
sg8
I4776374
sa(dp55
g6
F0.31715758785608256
sg1
S'yokoono'
p56
sg8
I4717456
sa(dp57
g6
F0.7727783011180704
sg1
S'AP'
p58
sg8
I4407133
sa(dp59
g6
F0.5065754425154455
sg1
S'SamuelLJackson'
p60
sg8
I4328006
sa(dp61
g6
F0.4390874809013865
sg1
S'noaheverett'
p62
sg8
I4230248
sa(dp63
g6
F0.47320383861134996
sg1
S'KevinSpacey'
p64
sg8
I3698268
sa(dp65
g6
F0.35862110745691306
sg1
S'joelmchale'
p66
sg8
I3526465
sa(dp67
g6
F0.36856265567698926
sg1
S'JohnCleese'
p68
sg8
I3512884
sa(dp69
g6
F0.769053292010939
sg1
S'CBSNews'
p70
sg8
I3430907
sa(dp71
g6
F0.14478333073276
sg1
S'CFKArgentina'
p72
sg8
I3352492
sa(dp73
g6
F0.5860794618924325
sg1
S'UncleRUSH'
p74
sg8
I3347563
sa(dp75
g6
F0.7462693901411495
sg1
S'TheDailyShow'
p76
sg8
I2946798
sa(dp77
g6
F0.6356769181337458
sg1
S'Number10gov'
p78
sg8
I2884467
sa(dp79
g6
F0.6646146781046408
sg1
S'billmaher'
p80
sg8
I2822882
sa(dp81
g6
F0.7174577169437766
sg1
S'ElBaradei'
p82
sg8
I2760411
sa(dp83
g6
F0.47527517133949615
sg1
S'wilw'
p84
sg8
I2739368
sa(dp85
g6
F0.8528952622680317
sg1
S'jack'
p86
sg8
I2736729
sa(dp87
g6
F0.6593688921833918
sg1
S'neiltyson'
p88
sg8
I2717653
sa(dp89
g6
F0.3375304969063907
sg1
S'sethmeyers'
p90
sg8
I2617194
sa(dp91
g6
F0.5760166105891017
sg1
S'TODAYshow'
p92
sg8
I2524121
sa(dp93
g6
F0.7139224453263096
sg1
S'HillaryClinton'
p94
sg8
I2481618
sa(dp95
g6
F0.29621489299807385
sg1
S'MissyElliott'
p96
sg8
I2461540
sa(dp97
g6
F0.5157571647390748
sg1
S'MagicJohnson'
p98
sg8
I2400704
sa(dp99
g6
F0.7614863605912243
sg1
S'AJEnglish'
p100
sg8
I2178563
sa(dp101
g6
F0.33631664074903417
sg1
S'DAVID_LYNCH'
p102
sg8
I2045830
sa(dp103
g6
F0.7695654339618292
sg1
S'NBCNews'
p104
sg8
I1932298
sa(dp105
g6
F0.70230050976233
sg1
S'SenJohnMcCain'
p106
sg8
I1924465
sas.