(dp0
S'christians'
p1
I1
sS'irs'
p2
I2
sS'renewus'
p3
I3
sS'michaelbrown'
p4
I8
sS'liberalhypocrisy'
p5
I1
sS'tamirrice'
p6
I3
sS'rednationrising'
p7
I44
sS'dontpayrush'
p8
I6
sS'woods'
p9
I2
sS'tgdn'
p10
I46
sS'uniteright'
p11
I6
sS'stribpol'
p12
I4
sS'rkba'
p13
I4
sS'extortion17'
p14
I1
sS'smith'
p15
I2
sS'raisethewage'
p16
I5
sS'iartg'
p17
I1
sS'clueless'
p18
I1
sS'legislatorinchief'
p19
I13
sS'emaciated'
p20
I1
sS'ffrnn'
p21
I2
sS'justice'
p22
I2
sS'wethepeople'
p23
I1
sS'obamacare'
p24
I1
sS'rnrdecal'
p25
I1
sS'stayhigh'
p26
I6
sS'nato'
p27
I6
sS'nsa'
p28
I7
sS'keystone'
p29
I1
sS'youmightbealiberal'
p30
I7
sS'hardball'
p31
I5
sS'election2016'
p32
I1
sS'obamaamnesty'
p33
I6
sS'makedclisten'
p34
I36
sS'thebearmanradioshow'
p35
I6
sS'tpfa'
p36
I1
sS'stopislam'
p37
I10
sS'fergusonprotests'
p38
I1
sS'rnc'
p39
I3
sS'acca'
p40
I1
sS'woodyallen'
p41
I1
sS'aesthetics'
p42
I1
sS'gitmo'
p43
I5
sS'whitehouse'
p44
I1
sS'crude'
p45
I1
sS'ccot'
p46
I68
sS'facebook'
p47
I1
sS'ferguson'
p48
I188
sS'stoprush'
p49
I8
sS'unitered'
p50
I1
sS'rnr'
p51
I1
sS'anystreet'
p52
I1
sS'vote2016'
p53
I3
sS'patriotvoices'
p54
I1
sS'benghazi'
p55
I5
sS'gunsense'
p56
I20
sS'unitelbue'
p57
I5
sS'harbinger'
p58
I2
sS'twitterstorm'
p59
I1
sS'greens'
p60
I6
sS'securetheborder'
p61
I1
sS'gop'
p62
I26
sS'voteblue'
p63
I1
sS'jokes'
p64
I3
sS'waarmedia'
p65
I1
sS'jihad'
p66
I1
sS'2a'
p67
I41
sS'truth'
p68
I1
sS'pdmfnb'
p69
I10
sS'citizensunited'
p70
I2
sS'tntweeters'
p71
I9
sS'amnesty'
p72
I11
sS'stopobama'
p73
I1
sS'cpac'
p74
I1
sS'democrats'
p75
I1
sS'copolitics'
p76
I3
sS'doherty'
p77
I2
sS'fisa'
p78
I1
sS'cashinin'
p79
I21
sS'intimogate'
p80
I1
sS'c2gthr'
p81
I1
sS'orpuw'
p82
I3
sS'energy'
p83
I1
sS'lnyhbt'
p84
I14
sS'elitism'
p85
I2
sS'settledscience'
p86
I1
sS'tarot'
p87
I1
sS'njp'
p88
I1
sS'video'
p89
I3
sS'election'
p90
I3
sS'1u'
p91
I12
sS'fail'
p92
I6
sS'nytimes'
p93
I5
sS'teamjesus'
p94
I1
sS'pantsupdontloot'
p95
I1
sS'twill'
p96
I8
sS'fergusondecision'
p97
I3
sS'viral'
p98
I2
sS'nwo'
p99
I33
sS'humor'
p100
I3
sS'maddow'
p101
I16
sS'chicago'
p102
I3
sS'defendtheduggars'
p103
I3
sS'pew'
p104
I1
sS'elizabethlauten'
p105
I4
sS'boehner'
p106
I1
sS'thisisthenra'
p107
I1
sS'immigrationaction'
p108
I4
sS'un'
p109
I7
sS'hipster'
p110
I2
sS'pets'
p111
I3
sS'ac360'
p112
I3
sS'umn'
p113
I1
sS'guns'
p114
I1
sS'amagi'
p115
I1
sS'tp4a'
p116
I2
sS'notonemore'
p117
I10
sS'ripoffs'
p118
I2
sS'muslim'
p119
I2
sS'jobs'
p120
I1
sS'tcot'
p121
I501
sS'p2b'
p122
I23
sS'ronpaul'
p123
I1
sS'cars'
p124
I1
sS'lookatthem'
p125
I2
sS'cnn'
p126
I16
sS'tlot'
p127
I36
sS'twisters'
p128
I4
sS'britishlaw'
p129
I1
sS'mmot'
p130
I30
sS'leadership'
p131
I1
sS'immigrati'
p132
I2
sS'evil'
p133
I1
sS'immigrationreform'
p134
I17
sS'conservatives'
p135
I15
sS'hedgeofprotection'
p136
I2
sS'news'
p137
I22
sS'makeitright'
p138
I2
sS'getmoneyout'
p139
I2
sS'fsaisajoke'
p140
I6
sS'waronwomen'
p141
I1
sS'oo'
p142
I8
sS'molonlabe'
p143
I5
sS'climate'
p144
I8
sS'fns'
p145
I1
sS'usa'
p146
I6
sS'lgbt'
p147
I2
sS'freedom'
p148
I5
sS'finland'
p149
I1
sS'everytown'
p150
I1
sS'sjw'
p151
I1
sS'british'
p152
I2
sS'vettheprez'
p153
I1
sS'tpot'
p154
I5
sS'pran945'
p155
I1
sS'ctl'
p156
I19
sS'fauxnews'
p157
I9
sS'anarchist'
p158
I1
sS'ub'
p159
I1
sS'michaelbriwn'
p160
I1
sS'unitedblue'
p161
I3
sS'hannity'
p162
I1
sS'uniteblue'
p163
I77
sS'gov'
p164
I2
sS'jesustweeters'
p165
I1
sS'stevens'
p166
I2
sS'egypt'
p167
I6
sS'sgp'
p168
I4
sS'mmj'
p169
I29
sS'climatecoverage'
p170
I1
sS'pragobots'
p171
I1
sS'jesus'
p172
I1
sS'impeachobama'
p173
I10
sS'thankful'
p174
I1
sS'rino'
p175
I1
sS'redonred'
p176
I6
sS'patriots'
p177
I7
sS'sot'
p178
I13
sS'wiunion'
p179
I7
sS'epa'
p180
I1
sS'scandal'
p181
I1
sS'ows'
p182
I54
sS'immigra'
p183
I1
sS'aym'
p184
I6
sS'1a'
p185
I22
sS'chucktodd'
p186
I2
sS'mikebrown'
p187
I11
sS'libcrib'
p188
I36
sS'reformislam'
p189
I5
sS'dnc'
p190
I4
sS'union'
p191
I1
sS'whitegenocide'
p192
I2
sS'socialism'
p193
I7
sS'lol'
p194
I4
sS'galtsgirl'
p195
I1
sS'occupy'
p196
I53
sS'liberals'
p197
I1
sS'cats'
p198
I3
sS'music'
p199
I1
sS'sentedcruz'
p200
I6
sS'teaparty'
p201
I67
sS'barackobama'
p202
I1
sS'opencarry'
p203
I2
sS'glennbeck'
p204
I1
sS'repubs'
p205
I1
sS'studentloan'
p206
I1
sS'iftheygunnedmedown'
p207
I1
sS'mtvstars'
p208
I13
sS'syria'
p209
I6
sS'lot'
p210
I2
sS'sharia'
p211
I1
sS'unitblue'
p212
I1
sS'looters'
p213
I1
sS'aca'
p214
I1
sS'foxnews'
p215
I9
sS'solar'
p216
I2
sS'gpus'
p217
I33
sS'authors'
p218
I2
sS'nra'
p219
I21
sS'pjnet'
p220
I113
sS'obama'
p221
I29
sS'p2'
p222
I501
sS'jdl'
p223
I1
sS'topprog'
p224
I69
sS'noamnesty'
p225
I1
sS'ben'
p226
I1
sS'mm'
p227
I1
sS'mn'
p228
I1
sS'humanrightsabuse'
p229
I1
sS'thisisislam'
p230
I3
sS'us'
p231
I2
sS'liberty'
p232
I9
sS'macysparade'
p233
I1
sS'netneutrality'
p234
I2
sS'dem'
p235
I3
sS'reagan'
p236
I2
sS'sadlittleman'
p237
I2
sS'ibdcartoons'
p238
I1
sS'whiteprivilege'
p239
I8
sS'propaganda'
p240
I1
sS'globalwarming'
p241
I1
sS'actonclimate'
p242
I1
sS'blacklivesmatter'
p243
I2
sS'isisisajoke'
p244
I6
sS'liberal'
p245
I1
sS'consnc'
p246
I2
sS'ttcot'
p247
I2
sS'israel'
p248
I1
sS'india2014'
p249
I2
sS'boycott'
p250
I2
sS'fox'
p251
I1
sS'billcosby'
p252
I1
sS'stopthelies'
p253
I1
sS'dems'
p254
I6
sS'politics'
p255
I4
sS'waar'
p256
I5
sS'texas'
p257
I2
sS'ew'
p258
I1
sS'rape'
p259
I1
sS'scotus'
p260
I1
sS'wearethepeople'
p261
I1
sS'documents'
p262
I1
sS'prolife'
p263
I8
sS'connecttheleft'
p264
I3
sS'newslinks'
p265
I1
sS'opslam'
p266
I1
sS'media'
p267
I5
sS'mapoli'
p268
I2
sS'nyt'
p269
I1
sS'gruber'
p270
I13
sS'food'
p271
I2
sS'youknowwhat'
p272
I1
sS'aclu'
p273
I1
sS'nyc'
p274
I19
sS'comedy'
p275
I3
sS'wiright'
p276
I2
sS'eff'
p277
I1
sS'economy'
p278
I1
sS'edshow'
p279
I5
sS'oil'
p280
I1
sS'mba'
p281
I1
sS'immigration'
p282
I22
sS'handsupdontshoot'
p283
I1
sS'tpp'
p284
I1
sS'nannystate'
p285
I1
sS'nonukes'
p286
I6
sS'bigboss8'
p287
I3
sS'hamas'
p288
I3
sS'islamic'
p289
I1
sS'rw'
p290
I4
sS'debt'
p291
I2
sS'military'
p292
I3
sS'teapartytoldyouso'
p293
I1
sS'ethics'
p294
I1
sS'tfb'
p295
I17
sS'hugsnotdrugs'
p296
I1
sS'resist44'
p297
I2
sS'du1'
p298
I1
sS'darrenwilson'
p299
I13
sS'ndaa'
p300
I6
sS'democracy'
p301
I2
sS'isis'
p302
I3
sS'alsharpton'
p303
I2
sS'ccw'
p304
I1
sS'occupywallstreet'
p305
I1
sS'thetwisters'
p306
I1
sS'sgpt'
p307
I1
sS'laraza'
p308
I1
sS'atheism'
p309
I1
sS'sierraclub'
p310
I1
sS'inners'
p311
I18
sS'fightfor15'
p312
I36
sS'green'
p313
I1
sS'yesallwomen'
p314
I1
sS'agw'
p315
I5
sS'blacknews'
p316
I1
sS'guncontrol'
p317
I3
sS'peopleschamp'
p318
I1
sS'dod'
p319
I1
sS'momsdemand'
p320
I1
s.